(dp0
S'lambdaVel'
p1
cdecimal
Decimal
p2
(S'0'
p3
tp4
Rp5
sS'streams'
p6
I3
sS'updates'
p7
(lp8
(lp9
g2
(g3
tp10
Rp11
ag2
(S'-12.183724'
p12
tp13
Rp14
ag2
(S'-2.3278679'
p15
tp16
Rp17
ag2
(S'-9.8868650'
p18
tp19
Rp20
ag2
(S'-19.420953'
p21
tp22
Rp23
ag2
(S'-20.546437'
p24
tp25
Rp26
ag2
(S'-13.074356'
p27
tp28
Rp29
ag2
(S'-22.676073'
p30
tp31
Rp32
ag2
(S'-44.749021'
p33
tp34
Rp35
ag2
(S'-43.488111'
p36
tp37
Rp38
ag2
(S'-34.647911'
p39
tp40
Rp41
ag2
(S'-20.575828'
p42
tp43
Rp44
ag2
(S'-26.391121'
p45
tp46
Rp47
ag2
(S'-20.926405'
p48
tp49
Rp50
ag2
(S'-17.791894'
p51
tp52
Rp53
ag2
(S'5.014306'
p54
tp55
Rp56
ag2
(S'-6.115040'
p57
tp58
Rp59
ag2
(S'-3.5015404'
p60
tp61
Rp62
ag2
(S'-2.5661664'
p63
tp64
Rp65
ag2
(S'-28.986858'
p66
tp67
Rp68
ag2
(S'-48.418050'
p69
tp70
Rp71
ag2
(S'-52.858765'
p72
tp73
Rp74
ag2
(S'-56.109203'
p75
tp76
Rp77
ag2
(S'-60.974587'
p78
tp79
Rp80
ag2
(S'-75.985903'
p81
tp82
Rp83
ag2
(S'-60.509647'
p84
tp85
Rp86
ag2
(S'-59.127560'
p87
tp88
Rp89
ag2
(S'-57.570253'
p90
tp91
Rp92
ag2
(S'-66.575551'
p93
tp94
Rp95
ag2
(S'-72.473375'
p96
tp97
Rp98
ag2
(S'-71.655191'
p99
tp100
Rp101
ag2
(S'-91.583132'
p102
tp103
Rp104
ag2
(S'-92.681903'
p105
tp106
Rp107
ag2
(S'-110.53900'
p108
tp109
Rp110
ag2
(S'-120.68222'
p111
tp112
Rp113
ag2
(S'-108.02139'
p114
tp115
Rp116
ag2
(S'-121.24816'
p117
tp118
Rp119
ag2
(S'-119.22741'
p120
tp121
Rp122
ag2
(S'-106.16298'
p123
tp124
Rp125
ag2
(S'-109.68958'
p126
tp127
Rp128
ag2
(S'-104.85113'
p129
tp130
Rp131
ag2
(S'-109.18256'
p132
tp133
Rp134
ag2
(S'-118.28147'
p135
tp136
Rp137
ag2
(S'-122.20281'
p138
tp139
Rp140
ag2
(S'-125.04193'
p141
tp142
Rp143
ag2
(S'-126.97059'
p144
tp145
Rp146
ag2
(S'-125.14180'
p147
tp148
Rp149
ag2
(S'-139.91278'
p150
tp151
Rp152
ag2
(S'-145.88959'
p153
tp154
Rp155
ag2
(S'-162.57065'
p156
tp157
Rp158
aa(lp159
g2
(g3
tp160
Rp161
ag2
(S'16.917911'
p162
tp163
Rp164
ag2
(S'15.135727'
p165
tp166
Rp167
ag2
(S'34.650400'
p168
tp169
Rp170
ag2
(S'51.805889'
p171
tp172
Rp173
ag2
(S'57.060379'
p174
tp175
Rp176
ag2
(S'58.474541'
p177
tp178
Rp179
ag2
(S'76.068201'
p180
tp181
Rp182
ag2
(S'94.802265'
p183
tp184
Rp185
ag2
(S'103.43016'
p186
tp187
Rp188
ag2
(S'103.50021'
p189
tp190
Rp191
ag2
(S'101.22610'
p192
tp193
Rp194
ag2
(S'110.06587'
p195
tp196
Rp197
ag2
(S'115.99510'
p198
tp199
Rp200
ag2
(S'118.84652'
p201
tp202
Rp203
ag2
(S'119.17312'
p204
tp205
Rp206
ag2
(S'140.26784'
p207
tp208
Rp209
ag2
(S'143.07549'
p210
tp211
Rp212
ag2
(S'154.68196'
p213
tp214
Rp215
ag2
(S'172.71319'
p216
tp217
Rp218
ag2
(S'188.95331'
p219
tp220
Rp221
ag2
(S'193.22698'
p222
tp223
Rp224
ag2
(S'207.02464'
p225
tp226
Rp227
ag2
(S'215.05026'
p228
tp229
Rp230
ag2
(S'228.07661'
p231
tp232
Rp233
ag2
(S'222.98986'
p234
tp235
Rp236
ag2
(S'229.25025'
p237
tp238
Rp239
ag2
(S'237.42916'
p240
tp241
Rp242
ag2
(S'240.52256'
p243
tp244
Rp245
ag2
(S'256.23847'
p246
tp247
Rp248
ag2
(S'266.22811'
p249
tp250
Rp251
ag2
(S'283.78860'
p252
tp253
Rp254
ag2
(S'286.79813'
p255
tp256
Rp257
ag2
(S'302.36928'
p258
tp259
Rp260
ag2
(S'310.85334'
p261
tp262
Rp263
ag2
(S'304.41256'
p264
tp265
Rp266
ag2
(S'319.56252'
p267
tp268
Rp269
ag2
(S'328.51753'
p270
tp271
Rp272
ag2
(S'327.42555'
p273
tp274
Rp275
ag2
(S'335.00808'
p276
tp277
Rp278
ag2
(S'343.26184'
p279
tp280
Rp281
ag2
(S'351.77279'
p282
tp283
Rp284
ag2
(S'365.53582'
p285
tp286
Rp287
ag2
(S'381.79656'
p288
tp289
Rp290
ag2
(S'386.61747'
p291
tp292
Rp293
ag2
(S'398.94156'
p294
tp295
Rp296
ag2
(S'408.82161'
p297
tp298
Rp299
ag2
(S'413.77759'
p300
tp301
Rp302
ag2
(S'426.68749'
p303
tp304
Rp305
ag2
(S'444.62634'
p306
tp307
Rp308
aa(lp309
g2
(g3
tp310
Rp311
ag2
(S'10.265813'
p312
tp313
Rp314
ag2
(S'17.192140'
p315
tp316
Rp317
ag2
(S'20.236465'
p318
tp319
Rp320
ag2
(S'27.615064'
p321
tp322
Rp323
ag2
(S'38.486058'
p324
tp325
Rp326
ag2
(S'44.599815'
p327
tp328
Rp329
ag2
(S'51.607873'
p330
tp331
Rp332
ag2
(S'69.946757'
p333
tp334
Rp335
ag2
(S'75.057947'
p336
tp337
Rp338
ag2
(S'81.147701'
p339
tp340
Rp341
ag2
(S'84.349728'
p342
tp343
Rp344
ag2
(S'96.325255'
p345
tp346
Rp347
ag2
(S'99.931307'
p348
tp349
Rp350
ag2
(S'108.94537'
p351
tp352
Rp353
ag2
(S'100.81257'
p354
tp355
Rp356
ag2
(S'105.84720'
p357
tp358
Rp359
ag2
(S'115.42605'
p360
tp361
Rp362
ag2
(S'117.88420'
p363
tp364
Rp365
ag2
(S'141.27366'
p366
tp367
Rp368
ag2
(S'159.46473'
p369
tp370
Rp371
ag2
(S'174.63177'
p372
tp373
Rp374
ag2
(S'179.08455'
p375
tp376
Rp377
ag2
(S'190.92432'
p378
tp379
Rp380
ag2
(S'207.90929'
p381
tp382
Rp383
ag2
(S'212.51978'
p384
tp385
Rp386
ag2
(S'219.87730'
p387
tp388
Rp389
ag2
(S'225.14108'
p390
tp391
Rp392
ag2
(S'246.05298'
p393
tp394
Rp395
ag2
(S'251.23489'
p396
tp397
Rp398
ag2
(S'255.42706'
p399
tp400
Rp401
ag2
(S'272.79451'
p402
tp403
Rp404
ag2
(S'285.88375'
p405
tp406
Rp407
ag2
(S'303.16969'
p408
tp409
Rp410
ag2
(S'319.82885'
p411
tp412
Rp413
ag2
(S'328.60880'
p414
tp415
Rp416
ag2
(S'341.68560'
p417
tp418
Rp419
ag2
(S'345.70984'
p420
tp421
Rp422
ag2
(S'348.73739'
p423
tp424
Rp425
ag2
(S'359.68145'
p426
tp427
Rp428
ag2
(S'361.58924'
p429
tp430
Rp431
ag2
(S'372.40972'
p432
tp433
Rp434
ag2
(S'382.74560'
p435
tp436
Rp437
ag2
(S'385.40620'
p438
tp439
Rp440
ag2
(S'398.42441'
p441
tp442
Rp443
ag2
(S'403.02898'
p444
tp445
Rp446
ag2
(S'406.32014'
p447
tp448
Rp449
ag2
(S'431.13513'
p450
tp451
Rp452
ag2
(S'439.20204'
p453
tp454
Rp455
ag2
(S'452.94424'
p456
tp457
Rp458
aasS'iterations'
p459
I50
sS'stdDistr'
p460
(cnumpy.core.multiarray
scalar
p461
(cnumpy
dtype
p462
(S'f8'
p463
I0
I1
tp464
Rp465
(I3
S'<'
p466
NNNI-1
I-1
I0
tp467
bS'\x00\x00\x00\x00\x00\x00$@'
p468
tp469
Rp470
g461
(g465
S'\x00\x00\x00\x00\x00\x00$@'
p471
tp472
Rp473
tp474
sS'velocities'
p475
(lp476
(lp477
g2
(S'-12.183724'
p478
tp479
Rp480
ag2
(S'9.8558561'
p481
tp482
Rp483
ag2
(S'-7.5589971'
p484
tp485
Rp486
ag2
(S'-9.5340882'
p487
tp488
Rp489
ag2
(S'-1.1254843'
p490
tp491
Rp492
ag2
(S'7.4720807'
p493
tp494
Rp495
ag2
(S'-9.6017174'
p496
tp497
Rp498
ag2
(S'-22.072948'
p499
tp500
Rp501
ag2
(S'1.2609104'
p502
tp503
Rp504
ag2
(S'8.8402003'
p505
tp506
Rp507
ag2
(S'14.072083'
p508
tp509
Rp510
ag2
(S'-5.8152932'
p511
tp512
Rp513
ag2
(S'5.4647164'
p514
tp515
Rp516
ag2
(S'3.1345111'
p517
tp518
Rp519
ag2
(S'22.806200'
p520
tp521
Rp522
ag2
(S'-11.129346'
p523
tp524
Rp525
ag2
(S'2.6134996'
p526
tp527
Rp528
ag2
(S'0.9353740'
p529
tp530
Rp531
ag2
(S'-26.420692'
p532
tp533
Rp534
ag2
(S'-19.431192'
p535
tp536
Rp537
ag2
(S'-4.4407147'
p538
tp539
Rp540
ag2
(S'-3.2504382'
p541
tp542
Rp543
ag2
(S'-4.8653844'
p544
tp545
Rp546
ag2
(S'-15.011316'
p547
tp548
Rp549
ag2
(S'15.476256'
p550
tp551
Rp552
ag2
(S'1.3820870'
p553
tp554
Rp555
ag2
(S'1.5573065'
p556
tp557
Rp558
ag2
(S'-9.005298'
p559
tp560
Rp561
ag2
(S'-5.8978239'
p562
tp563
Rp564
ag2
(S'0.8181843'
p565
tp566
Rp567
ag2
(S'-19.927941'
p568
tp569
Rp570
ag2
(S'-1.0987708'
p571
tp572
Rp573
ag2
(S'-17.857095'
p574
tp575
Rp576
ag2
(S'-10.143219'
p577
tp578
Rp579
ag2
(S'12.660833'
p580
tp581
Rp582
ag2
(S'-13.226767'
p583
tp584
Rp585
ag2
(S'2.0207458'
p586
tp587
Rp588
ag2
(S'13.064431'
p589
tp590
Rp591
ag2
(S'-3.5265958'
p592
tp593
Rp594
ag2
(S'4.8384451'
p595
tp596
Rp597
ag2
(S'-4.3314297'
p598
tp599
Rp600
ag2
(S'-9.0989138'
p601
tp602
Rp603
ag2
(S'-3.9213382'
p604
tp605
Rp606
ag2
(S'-2.839118'
p607
tp608
Rp609
ag2
(S'-1.9286647'
p610
tp611
Rp612
ag2
(S'1.8287910'
p613
tp614
Rp615
ag2
(S'-14.770977'
p616
tp617
Rp618
ag2
(S'-5.9768108'
p619
tp620
Rp621
ag2
(S'-16.681056'
p622
tp623
Rp624
ag2
(S'-4.784568'
p625
tp626
Rp627
aa(lp628
g2
(S'16.917911'
p629
tp630
Rp631
ag2
(S'-1.7821835'
p632
tp633
Rp634
ag2
(S'19.514673'
p635
tp636
Rp637
ag2
(S'17.155489'
p638
tp639
Rp640
ag2
(S'5.2544904'
p641
tp642
Rp643
ag2
(S'1.4141623'
p644
tp645
Rp646
ag2
(S'17.593660'
p647
tp648
Rp649
ag2
(S'18.734064'
p650
tp651
Rp652
ag2
(S'8.6279000'
p653
tp654
Rp655
ag2
(S'0.0700462'
p656
tp657
Rp658
ag2
(S'-2.2741088'
p659
tp660
Rp661
ag2
(S'8.8397665'
p662
tp663
Rp664
ag2
(S'5.9292322'
p665
tp666
Rp667
ag2
(S'2.8514232'
p668
tp669
Rp670
ag2
(S'0.326601'
p671
tp672
Rp673
ag2
(S'21.094719'
p674
tp675
Rp676
ag2
(S'2.8076478'
p677
tp678
Rp679
ag2
(S'11.606472'
p680
tp681
Rp682
ag2
(S'18.031230'
p683
tp684
Rp685
ag2
(S'16.240123'
p686
tp687
Rp688
ag2
(S'4.2736694'
p689
tp690
Rp691
ag2
(S'13.797662'
p692
tp693
Rp694
ag2
(S'8.0256167'
p695
tp696
Rp697
ag2
(S'13.026349'
p698
tp699
Rp700
ag2
(S'-5.0867455'
p701
tp702
Rp703
ag2
(S'6.2603947'
p704
tp705
Rp706
ag2
(S'8.1789107'
p707
tp708
Rp709
ag2
(S'3.093396'
p710
tp711
Rp712
ag2
(S'15.715911'
p713
tp714
Rp715
ag2
(S'9.989642'
p716
tp717
Rp718
ag2
(S'17.560493'
p719
tp720
Rp721
ag2
(S'3.0095326'
p722
tp723
Rp724
ag2
(S'15.571151'
p725
tp726
Rp727
ag2
(S'8.4840635'
p728
tp729
Rp730
ag2
(S'-6.4407792'
p731
tp732
Rp733
ag2
(S'15.149965'
p734
tp735
Rp736
ag2
(S'8.955012'
p737
tp738
Rp739
ag2
(S'-1.0919784'
p740
tp741
Rp742
ag2
(S'7.5825332'
p743
tp744
Rp745
ag2
(S'8.2537603'
p746
tp747
Rp748
ag2
(S'8.5109528'
p749
tp750
Rp751
ag2
(S'13.763031'
p752
tp753
Rp754
ag2
(S'16.260740'
p755
tp756
Rp757
ag2
(S'4.8209113'
p758
tp759
Rp760
ag2
(S'12.324095'
p761
tp762
Rp763
ag2
(S'9.8800483'
p764
tp765
Rp766
ag2
(S'4.955984'
p767
tp768
Rp769
ag2
(S'12.909897'
p770
tp771
Rp772
ag2
(S'17.938852'
p773
tp774
Rp775
ag2
(S'3.7227429'
p776
tp777
Rp778
aa(lp779
g2
(S'10.265813'
p780
tp781
Rp782
ag2
(S'6.9263273'
p783
tp784
Rp785
ag2
(S'3.0443247'
p786
tp787
Rp788
ag2
(S'7.3785993'
p789
tp790
Rp791
ag2
(S'10.870994'
p792
tp793
Rp794
ag2
(S'6.1137573'
p795
tp796
Rp797
ag2
(S'7.0080577'
p798
tp799
Rp800
ag2
(S'18.338884'
p801
tp802
Rp803
ag2
(S'5.1111896'
p804
tp805
Rp806
ag2
(S'6.0897537'
p807
tp808
Rp809
ag2
(S'3.2020269'
p810
tp811
Rp812
ag2
(S'11.975527'
p813
tp814
Rp815
ag2
(S'3.6060517'
p816
tp817
Rp818
ag2
(S'9.0140656'
p819
tp820
Rp821
ag2
(S'-8.1328020'
p822
tp823
Rp824
ag2
(S'5.0346280'
p825
tp826
Rp827
ag2
(S'9.5788527'
p828
tp829
Rp830
ag2
(S'2.4581550'
p831
tp832
Rp833
ag2
(S'23.389462'
p834
tp835
Rp836
ag2
(S'18.191069'
p837
tp838
Rp839
ag2
(S'15.167045'
p840
tp841
Rp842
ag2
(S'4.4527756'
p843
tp844
Rp845
ag2
(S'11.839768'
p846
tp847
Rp848
ag2
(S'16.984967'
p849
tp850
Rp851
ag2
(S'4.6104896'
p852
tp853
Rp854
ag2
(S'7.3575184'
p855
tp856
Rp857
ag2
(S'5.2637827'
p858
tp859
Rp860
ag2
(S'20.911901'
p861
tp862
Rp863
ag2
(S'5.1819138'
p864
tp865
Rp866
ag2
(S'4.1921743'
p867
tp868
Rp869
ag2
(S'17.367449'
p870
tp871
Rp872
ag2
(S'13.089238'
p873
tp874
Rp875
ag2
(S'17.285944'
p876
tp877
Rp878
ag2
(S'16.659156'
p879
tp880
Rp881
ag2
(S'8.7799464'
p882
tp883
Rp884
ag2
(S'13.076803'
p885
tp886
Rp887
ag2
(S'4.0242420'
p888
tp889
Rp890
ag2
(S'3.0275471'
p891
tp892
Rp893
ag2
(S'10.944062'
p894
tp895
Rp896
ag2
(S'1.9077944'
p897
tp898
Rp899
ag2
(S'10.820476'
p900
tp901
Rp902
ag2
(S'10.335883'
p903
tp904
Rp905
ag2
(S'2.6605983'
p906
tp907
Rp908
ag2
(S'13.018207'
p909
tp910
Rp911
ag2
(S'4.6045696'
p912
tp913
Rp914
ag2
(S'3.2911604'
p915
tp916
Rp917
ag2
(S'24.814992'
p918
tp919
Rp920
ag2
(S'8.0669137'
p921
tp922
Rp923
ag2
(S'13.742205'
p924
tp925
Rp926
ag2
(S'16.061825'
p927
tp928
Rp929
aasS'meanDistr'
p930
(g461
(g465
S'\x00\x00\x00\x00\x00\x00\x14@'
p931
tp932
Rp933
g461
(g465
S'\x00\x00\x00\x00\x00\x00\x14@'
p934
tp935
Rp936
tp937
sS'normalizing'
p938
I01
s.